Certificate:
    Data:
        Version: 3 (0x2)
        Serial Number: 14740729990607984057 (0xcc9197d3a422d5b9)
    Signature Algorithm: sha256WithRSAEncryption
        Issuer: C=CN, ST=BJ, O=TELEINFO, OU=TELEINFO, CN=TELEINFO/emailAddress=service@teleinfo.cn
        Validity
            Not Before: Nov 16 09:52:28 2015 GMT
            Not After : Nov 13 09:52:28 2025 GMT
        Subject: C=CN, ST=BJ, L=BJ, O=TELEINFO, OU=TELEINFO, CN=vsp01/emailAddress=service@teleinfo.cn
        Subject Public Key Info:
            Public Key Algorithm: rsaEncryption
                Public-Key: (2048 bit)
                Modulus:
                    00:99:e2:24:9b:75:5f:e5:d8:92:73:3d:ef:74:c5:
                    fd:da:53:fb:f0:2e:48:db:fe:da:f6:80:78:55:2a:
                    48:bd:e3:91:49:a2:04:e1:e4:6c:22:8d:30:60:09:
                    11:72:b1:3c:93:66:a4:81:26:4c:cd:5a:f0:be:f0:
                    79:72:f9:a2:2b:a4:fb:ac:f0:4c:d5:bb:12:8c:04:
                    26:7e:fe:41:d3:40:3f:b2:f2:e7:04:9a:1d:cb:97:
                    d7:39:1b:54:14:e4:9b:f3:d5:a6:3c:f1:3c:2a:e9:
                    cf:53:89:ef:6d:9f:9c:7f:73:16:9f:f8:5f:62:25:
                    18:17:f9:c8:af:54:1a:12:b4:33:40:50:6b:59:fa:
                    15:e9:01:d3:7a:14:ff:7c:e5:4c:2f:b9:6d:ee:fa:
                    0b:ea:4d:49:2f:5c:98:3e:0f:f5:a7:ae:89:f8:5b:
                    10:cf:9d:16:75:cd:25:5c:e5:76:55:db:f4:ea:70:
                    2d:21:ee:7b:73:7a:39:82:f5:90:4c:58:14:b7:f4:
                    3b:bb:79:a9:e4:ff:5e:d6:22:10:b2:02:62:8f:5e:
                    ea:d2:c3:e2:55:ad:73:45:8d:a1:8d:5d:55:93:71:
                    13:ca:83:2c:90:0c:55:fc:71:de:7a:4d:ee:0a:6d:
                    38:c2:ac:03:44:9c:29:07:2d:71:8d:6c:6f:0d:1d:
                    e6:41
                Exponent: 65537 (0x10001)
        X509v3 extensions:
            X509v3 Basic Constraints: 
                CA:FALSE
            Netscape Comment: 
                OpenSSL Generated Certificate
            X509v3 Subject Key Identifier: 
                3A:F7:C5:89:FD:66:8D:84:9F:13:88:AD:9D:77:CB:C2:B3:E1:3B:E1
            X509v3 Authority Key Identifier: 
                keyid:D7:D1:8C:AC:FF:3B:EC:04:AD:A9:E2:5C:FB:60:E8:81:09:8F:33:72

    Signature Algorithm: sha256WithRSAEncryption
         9d:c4:d5:e7:75:ad:24:36:53:fd:89:28:47:7e:1d:db:5a:da:
         fa:fa:e0:05:f1:91:84:80:09:68:2f:87:15:16:9a:44:e2:8e:
         c6:6f:75:2a:3a:30:cf:c7:24:3d:fa:a9:58:3a:b8:05:3e:fe:
         85:36:e9:35:1f:dd:5a:78:62:9b:fb:a8:4f:d4:24:5d:db:a5:
         ac:22:3c:f3:05:76:01:a8:81:e4:e7:0e:45:57:e8:eb:67:f8:
         e0:ab:ac:e0:0c:c6:8a:2c:5b:34:f4:66:37:d2:ad:dd:57:2e:
         75:01:56:59:bb:42:e4:b6:54:ad:ab:db:f9:46:49:0a:28:11:
         b6:3b:8d:42:7e:6a:6d:72:8a:41:0e:b8:77:11:20:2d:6a:0e:
         cd:63:5a:fc:d3:6d:c0:a6:3d:1b:d0:38:f5:5b:e5:6c:13:6a:
         0f:9b:98:15:71:aa:ca:fb:78:0b:af:e4:62:b0:80:54:23:cb:
         30:01:b7:df:cc:17:2c:97:fc:5c:9e:8e:ab:09:d9:6d:09:3f:
         5a:a5:8f:8c:8f:42:6a:23:b8:84:d6:f5:4b:89:be:7d:36:e3:
         05:56:68:2d:5c:ca:51:bd:f7:b4:92:26:0f:02:d5:8c:dc:fa:
         8b:c1:4d:74:b0:b2:8c:19:f8:84:39:3e:28:6b:1f:4b:45:02:
         90:4c:cb:ae
-----BEGIN CERTIFICATE-----
MIID9zCCAt+gAwIBAgIJAMyRl9OkItW5MA0GCSqGSIb3DQEBCwUAMHcxCzAJBgNV
BAYTAkNOMQswCQYDVQQIDAJCSjERMA8GA1UECgwIVEVMRUlORk8xETAPBgNVBAsM
CFRFTEVJTkZPMREwDwYDVQQDDAhURUxFSU5GTzEiMCAGCSqGSIb3DQEJARYTc2Vy
dmljZUB0ZWxlaW5mby5jbjAeFw0xNTExMTYwOTUyMjhaFw0yNTExMTMwOTUyMjha
MIGBMQswCQYDVQQGEwJDTjELMAkGA1UECAwCQkoxCzAJBgNVBAcMAkJKMREwDwYD
VQQKDAhURUxFSU5GTzERMA8GA1UECwwIVEVMRUlORk8xDjAMBgNVBAMMBXZzcDAx
MSIwIAYJKoZIhvcNAQkBFhNzZXJ2aWNlQHRlbGVpbmZvLmNuMIIBIjANBgkqhkiG
9w0BAQEFAAOCAQ8AMIIBCgKCAQEAmeIkm3Vf5diScz3vdMX92lP78C5I2/7a9oB4
VSpIveORSaIE4eRsIo0wYAkRcrE8k2akgSZMzVrwvvB5cvmiK6T7rPBM1bsSjAQm
fv5B00A/svLnBJody5fXORtUFOSb89WmPPE8KunPU4nvbZ+cf3MWn/hfYiUYF/nI
r1QaErQzQFBrWfoV6QHTehT/fOVML7lt7voL6k1JL1yYPg/1p66J+FsQz50Wdc0l
XOV2Vdv06nAtIe57c3o5gvWQTFgUt/Q7u3mp5P9e1iIQsgJij17q0sPiVa1zRY2h
jV1Vk3ETyoMskAxV/HHeek3uCm04wqwDRJwpBy1xjWxvDR3mQQIDAQABo3sweTAJ
BgNVHRMEAjAAMCwGCWCGSAGG+EIBDQQfFh1PcGVuU1NMIEdlbmVyYXRlZCBDZXJ0
aWZpY2F0ZTAdBgNVHQ4EFgQUOvfFif1mjYSfE4itnXfLwrPhO+EwHwYDVR0jBBgw
FoAU19GMrP877AStqeJc+2DogQmPM3IwDQYJKoZIhvcNAQELBQADggEBAJ3E1ed1
rSQ2U/2JKEd+Hdta2vr64AXxkYSACWgvhxUWmkTijsZvdSo6MM/HJD36qVg6uAU+
/oU26TUf3Vp4Ypv7qE/UJF3bpawiPPMFdgGogeTnDkVX6Otn+OCrrOAMxoosWzT0
ZjfSrd1XLnUBVlm7QuS2VK2r2/lGSQooEbY7jUJ+am1yikEOuHcRIC1qDs1jWvzT
bcCmPRvQOPVb5WwTag+bmBVxqsr7eAuv5GKwgFQjyzABt9/MFyyX/FyejqsJ2W0J
P1qlj4yPQmojuITW9UuJvn024wVWaC1cylG997SSJg8C1Yzc+ovBTXSwsowZ+IQ5
PihrH0tFApBMy64=
-----END CERTIFICATE-----
